; ModuleID = '6/89.c'
source_filename = "6/89.c"
target datalayout = "e-m:e-p270:32:32-p271:32:32-p272:64:64-i64:64-f80:128-n8:16:32:64-S128"
target triple = "x86_64-pc-linux-gnu"

@.str = private unnamed_addr constant [3 x i8] c"%d\00", align 1
@.str.1 = private unnamed_addr constant [5 x i8] c"%d%d\00", align 1
@.str.2 = private unnamed_addr constant [4 x i8] c"%d\0A\00", align 1

; Function Attrs: noinline nounwind uwtable
define dso_local i32 @main() #0 {
  %1 = alloca i32, align 4
  %2 = alloca i32*, align 8
  %3 = alloca i32, align 4
  %4 = alloca i32, align 4
  %5 = alloca i32, align 4
  %6 = alloca i32, align 4
  %7 = alloca i32, align 4
  %8 = alloca i32, align 4
  store i32 0, i32* %1, align 4
  store i32 0, i32* %8, align 4
  %9 = call i32 (i8*, ...) @__isoc99_scanf(i8* getelementptr inbounds ([3 x i8], [3 x i8]* @.str, i64 0, i64 0), i32* %5)
  store i32 1, i32* %4, align 4
  br label %10

10:                                               ; preds = %77, %0
  %11 = load i32, i32* %4, align 4
  %12 = load i32, i32* %5, align 4
  %13 = icmp sle i32 %11, %12
  br i1 %13, label %14, label %80

14:                                               ; preds = %10
  store i32 0, i32* %3, align 4
  %15 = call i32 (i8*, ...) @__isoc99_scanf(i8* getelementptr inbounds ([5 x i8], [5 x i8]* @.str.1, i64 0, i64 0), i32* %7, i32* %6)
  %16 = load i32, i32* %6, align 4
  %17 = load i32, i32* %7, align 4
  %18 = mul nsw i32 %16, %17
  %19 = sext i32 %18 to i64
  %20 = mul i64 4, %19
  %21 = call noalias i8* @malloc(i64 %20) #3
  %22 = bitcast i8* %21 to i32*
  store i32* %22, i32** %2, align 8
  store i32 0, i32* %8, align 4
  br label %23

23:                                               ; preds = %69, %14
  %24 = load i32, i32* %8, align 4
  %25 = load i32, i32* %6, align 4
  %26 = load i32, i32* %7, align 4
  %27 = mul nsw i32 %25, %26
  %28 = icmp slt i32 %24, %27
  br i1 %28, label %29, label %72

29:                                               ; preds = %23
  %30 = load i32*, i32** %2, align 8
  %31 = load i32, i32* %8, align 4
  %32 = sext i32 %31 to i64
  %33 = getelementptr inbounds i32, i32* %30, i64 %32
  %34 = call i32 (i8*, ...) @__isoc99_scanf(i8* getelementptr inbounds ([3 x i8], [3 x i8]* @.str, i64 0, i64 0), i32* %33)
  %35 = load i32, i32* %8, align 4
  %36 = add nsw i32 %35, 1
  %37 = load i32, i32* %6, align 4
  %38 = icmp sle i32 %36, %37
  br i1 %38, label %60, label %39

39:                                               ; preds = %29
  %40 = load i32, i32* %8, align 4
  %41 = load i32, i32* %6, align 4
  %42 = load i32, i32* %7, align 4
  %43 = mul nsw i32 %41, %42
  %44 = load i32, i32* %6, align 4
  %45 = sub nsw i32 %43, %44
  %46 = sub nsw i32 %45, 1
  %47 = icmp sgt i32 %40, %46
  br i1 %47, label %60, label %48

48:                                               ; preds = %39
  %49 = load i32, i32* %8, align 4
  %50 = add nsw i32 %49, 1
  %51 = load i32, i32* %6, align 4
  %52 = srem i32 %50, %51
  %53 = icmp eq i32 %52, 1
  br i1 %53, label %60, label %54

54:                                               ; preds = %48
  %55 = load i32, i32* %8, align 4
  %56 = add nsw i32 %55, 1
  %57 = load i32, i32* %6, align 4
  %58 = srem i32 %56, %57
  %59 = icmp eq i32 %58, 0
  br i1 %59, label %60, label %68

60:                                               ; preds = %54, %48, %39, %29
  %61 = load i32*, i32** %2, align 8
  %62 = load i32, i32* %8, align 4
  %63 = sext i32 %62 to i64
  %64 = getelementptr inbounds i32, i32* %61, i64 %63
  %65 = load i32, i32* %64, align 4
  %66 = load i32, i32* %3, align 4
  %67 = add nsw i32 %66, %65
  store i32 %67, i32* %3, align 4
  br label %68

68:                                               ; preds = %60, %54
  br label %69

69:                                               ; preds = %68
  %70 = load i32, i32* %8, align 4
  %71 = add nsw i32 %70, 1
  store i32 %71, i32* %8, align 4
  br label %23

72:                                               ; preds = %23
  %73 = load i32*, i32** %2, align 8
  %74 = bitcast i32* %73 to i8*
  call void @free(i8* %74) #3
  %75 = load i32, i32* %3, align 4
  %76 = call i32 (i8*, ...) @printf(i8* getelementptr inbounds ([4 x i8], [4 x i8]* @.str.2, i64 0, i64 0), i32 %75)
  br label %77

77:                                               ; preds = %72
  %78 = load i32, i32* %4, align 4
  %79 = add nsw i32 %78, 1
  store i32 %79, i32* %4, align 4
  br label %10

80:                                               ; preds = %10
  %81 = load i32, i32* %1, align 4
  ret i32 %81
}

declare dso_local i32 @__isoc99_scanf(i8*, ...) #1

; Function Attrs: nounwind
declare dso_local noalias i8* @malloc(i64) #2

; Function Attrs: nounwind
declare dso_local void @free(i8*) #2

declare dso_local i32 @printf(i8*, ...) #1


!llvm.module.flags = !{!0}
!llvm.ident = !{!1}

!0 = !{i32 1, !"wchar_size", i32 4}
!1 = !{!"clang version 10.0.0-4ubuntu1 "}
