; ModuleID = 'source-C-CXX/5/89.c'
source_filename = "source-C-CXX/5/89.c"
target datalayout = "e-m:e-p270:32:32-p271:32:32-p272:64:64-i64:64-f80:128-n8:16:32:64-S128"
target triple = "x86_64-pc-linux-gnu"

@.str = private unnamed_addr constant [3 x i8] c"%d\00", align 1
@.str.1 = private unnamed_addr constant [5 x i8] c"%d%d\00", align 1
@.str.2 = private unnamed_addr constant [4 x i8] c"%d\0A\00", align 1

; Function Attrs: nounwind sspstrong uwtable
define dso_local i32 @main() local_unnamed_addr #0 {
  %1 = alloca i32, align 4
  %2 = alloca i32, align 4
  %3 = alloca i32, align 4
  %4 = bitcast i32* %1 to i8*
  call void @llvm.lifetime.start.p0i8(i64 4, i8* nonnull %4) #5
  %5 = bitcast i32* %2 to i8*
  call void @llvm.lifetime.start.p0i8(i64 4, i8* nonnull %5) #5
  %6 = bitcast i32* %3 to i8*
  call void @llvm.lifetime.start.p0i8(i64 4, i8* nonnull %6) #5
  %7 = call i32 (i8*, ...) @__isoc99_scanf(i8* getelementptr inbounds ([3 x i8], [3 x i8]* @.str, i64 0, i64 0), i32* nonnull %1)
  %8 = load i32, i32* %1, align 4, !tbaa !5
  %9 = icmp slt i32 %8, 1
  br i1 %9, label %54, label %10

10:                                               ; preds = %0, %48
  %11 = phi i32 [ %51, %48 ], [ 1, %0 ]
  %12 = call i32 (i8*, ...) @__isoc99_scanf(i8* getelementptr inbounds ([5 x i8], [5 x i8]* @.str.1, i64 0, i64 0), i32* nonnull %3, i32* nonnull %2)
  %13 = load i32, i32* %2, align 4, !tbaa !5
  %14 = load i32, i32* %3, align 4, !tbaa !5
  %15 = mul nsw i32 %14, %13
  %16 = sext i32 %15 to i64
  %17 = shl nsw i64 %16, 2
  %18 = call noalias align 16 i8* @malloc(i64 %17) #5
  %19 = bitcast i8* %18 to i32*
  %20 = icmp sgt i32 %15, 0
  br i1 %20, label %21, label %48

21:                                               ; preds = %10, %44
  %22 = phi i64 [ %26, %44 ], [ 0, %10 ]
  %23 = phi i32 [ %45, %44 ], [ 0, %10 ]
  %24 = getelementptr inbounds i32, i32* %19, i64 %22
  %25 = call i32 (i8*, ...) @__isoc99_scanf(i8* getelementptr inbounds ([3 x i8], [3 x i8]* @.str, i64 0, i64 0), i32* %24)
  %26 = add nuw nsw i64 %22, 1
  %27 = load i32, i32* %2, align 4, !tbaa !5
  %28 = sext i32 %27 to i64
  %29 = icmp slt i64 %22, %28
  %30 = load i32, i32* %3, align 4, !tbaa !5
  %31 = mul nsw i32 %30, %27
  br i1 %29, label %41, label %32

32:                                               ; preds = %21
  %33 = xor i32 %27, -1
  %34 = add i32 %31, %33
  %35 = sext i32 %34 to i64
  %36 = icmp sgt i64 %22, %35
  br i1 %36, label %41, label %37

37:                                               ; preds = %32
  %38 = trunc i64 %26 to i32
  %39 = srem i32 %38, %27
  %40 = icmp ult i32 %39, 2
  br i1 %40, label %41, label %44

41:                                               ; preds = %21, %37, %32
  %42 = load i32, i32* %24, align 4, !tbaa !5
  %43 = add nsw i32 %42, %23
  br label %44

44:                                               ; preds = %37, %41
  %45 = phi i32 [ %23, %37 ], [ %43, %41 ]
  %46 = sext i32 %31 to i64
  %47 = icmp slt i64 %26, %46
  br i1 %47, label %21, label %48, !llvm.loop !9

48:                                               ; preds = %44, %10
  %49 = phi i32 [ 0, %10 ], [ %45, %44 ]
  call void @free(i8* %18) #5
  %50 = call i32 (i8*, ...) @printf(i8* nonnull dereferenceable(1) getelementptr inbounds ([4 x i8], [4 x i8]* @.str.2, i64 0, i64 0), i32 %49)
  %51 = add nuw nsw i32 %11, 1
  %52 = load i32, i32* %1, align 4, !tbaa !5
  %53 = icmp slt i32 %11, %52
  br i1 %53, label %10, label %54, !llvm.loop !11

54:                                               ; preds = %48, %0
  call void @llvm.lifetime.end.p0i8(i64 4, i8* nonnull %6) #5
  call void @llvm.lifetime.end.p0i8(i64 4, i8* nonnull %5) #5
  call void @llvm.lifetime.end.p0i8(i64 4, i8* nonnull %4) #5
  ret i32 0
}

; Function Attrs: argmemonly mustprogress nofree nosync nounwind willreturn
declare void @llvm.lifetime.start.p0i8(i64 immarg, i8* nocapture) #1

; Function Attrs: nofree nounwind
declare noundef i32 @__isoc99_scanf(i8* nocapture noundef readonly, ...) local_unnamed_addr #2

; Function Attrs: inaccessiblememonly mustprogress nofree nounwind willreturn
declare noalias noundef align 16 i8* @malloc(i64 noundef) local_unnamed_addr #3

; Function Attrs: inaccessiblemem_or_argmemonly mustprogress nounwind willreturn
declare void @free(i8* nocapture noundef) local_unnamed_addr #4

; Function Attrs: nofree nounwind
declare noundef i32 @printf(i8* nocapture noundef readonly, ...) local_unnamed_addr #2

; Function Attrs: argmemonly mustprogress nofree nosync nounwind willreturn
declare void @llvm.lifetime.end.p0i8(i64 immarg, i8* nocapture) #1


!llvm.module.flags = !{!0, !1, !2, !3}
!llvm.ident = !{!4}

!0 = !{i32 1, !"wchar_size", i32 4}
!1 = !{i32 7, !"PIC Level", i32 2}
!2 = !{i32 7, !"PIE Level", i32 2}
!3 = !{i32 7, !"uwtable", i32 1}
!4 = !{!"clang version 13.0.0"}
!5 = !{!6, !6, i64 0}
!6 = !{!"int", !7, i64 0}
!7 = !{!"omnipotent char", !8, i64 0}
!8 = !{!"Simple C/C++ TBAA"}
!9 = distinct !{!9, !10}
!10 = !{!"llvm.loop.mustprogress"}
!11 = distinct !{!11, !10}
